; Function Attrs: mustprogress uwtable
define dso_local void @_ZN7testing8internal24XmlUnitTestResultPrinter23ListTestsMatchingFilterERKSt6vectorIPNS_9TestSuiteESaIS4_EE(ptr noundef nonnull readonly align 8 captures(none) dereferenceable(40) %0, ptr noundef nonnull readonly align 8 captures(none) dereferenceable(24) %1) local_unnamed_addr #3 align 2 personality ptr @__gxx_personality_v0 {
  %3 = alloca %"class.std::__cxx11::basic_stringstream", align 8
  %4 = alloca %"class.std::__cxx11::basic_string", align 8
  %5 = getelementptr inbounds nuw i8, ptr %0, i64 8
  %6 = tail call fastcc noundef ptr @_ZN7testing8internalL18OpenFileForWritingERKNSt7__cxx1112basic_stringIcSt11char_traitsIcESaIcEEE(ptr noundef nonnull align 8 dereferenceable(32) %5)
  call void @llvm.lifetime.start.p0(i64 392, ptr nonnull %3) #57
  call void @_ZNSt7__cxx1118basic_stringstreamIcSt11char_traitsIcESaIcEEC1Ev(ptr noundef nonnull align 8 dereferenceable(128) %3)
  %7 = getelementptr inbounds nuw i8, ptr %3, i64 16
  invoke void @_ZN7testing8internal24XmlUnitTestResultPrinter17PrintXmlTestsListEPSoRKSt6vectorIPNS_9TestSuiteESaIS5_EE(ptr noundef nonnull %7, ptr noundef nonnull align 8 dereferenceable(24) %1)
          to label %8 unwind label %44

8:                                                ; preds = %2
  call void @llvm.lifetime.start.p0(i64 32, ptr nonnull %4) #57
  invoke void @_ZN7testing8internal20StringStreamToStringEPNSt7__cxx1118basic_stringstreamIcSt11char_traitsIcESaIcEEE(ptr dead_on_unwind nonnull writable sret(%"class.std::__cxx11::basic_string") align 8 %4, ptr noundef nonnull %3)
          to label %9 unwind label %46

9:                                                ; preds = %8
  %10 = load ptr, ptr %4, align 8, !tbaa !23
  %fputs = call i32 @fputs(ptr %10, ptr %6)
  %11 = load ptr, ptr %4, align 8, !tbaa !23
  %12 = getelementptr inbounds nuw i8, ptr %4, i64 16
  %13 = icmp eq ptr %11, %12
  br i1 %13, label %_ZNKSt7__cxx1112basic_stringIcSt11char_traitsIcESaIcEE11_M_is_localEv.exit.thread.i.i, label %_ZNKSt7__cxx1112basic_stringIcSt11char_traitsIcESaIcEE11_M_is_localEv.exit.i.i

_ZNKSt7__cxx1112basic_stringIcSt11char_traitsIcESaIcEE11_M_is_localEv.exit.thread.i.i: ; preds = %9
  %14 = getelementptr inbounds nuw i8, ptr %4, i64 8
  %15 = load i64, ptr %14, align 8, !tbaa !26
  %16 = icmp ult i64 %15, 16
  call void @llvm.assume(i1 %16)
  br label %_ZNSt7__cxx1112basic_stringIcSt11char_traitsIcESaIcEED2Ev.exit

_ZNKSt7__cxx1112basic_stringIcSt11char_traitsIcESaIcEE11_M_is_localEv.exit.i.i: ; preds = %9
  %17 = load i64, ptr %12, align 8, !tbaa !28
  %18 = add i64 %17, 1
  call void @_ZdlPvm(ptr noundef %11, i64 noundef %18) #58
  br label %_ZNSt7__cxx1112basic_stringIcSt11char_traitsIcESaIcEED2Ev.exit

_ZNSt7__cxx1112basic_stringIcSt11char_traitsIcESaIcEED2Ev.exit: ; preds = %_ZNKSt7__cxx1112basic_stringIcSt11char_traitsIcESaIcEE11_M_is_localEv.exit.thread.i.i, %_ZNKSt7__cxx1112basic_stringIcSt11char_traitsIcESaIcEE11_M_is_localEv.exit.i.i
  call void @llvm.lifetime.end.p0(i64 32, ptr nonnull %4) #57
  %19 = call i32 @fclose(ptr noundef %6)
  %20 = load ptr, ptr @_ZTTNSt7__cxx1118basic_stringstreamIcSt11char_traitsIcESaIcEEE, align 8
  store ptr %20, ptr %3, align 8, !tbaa !33
  %21 = load ptr, ptr getelementptr inbounds nuw (i8, ptr @_ZTTNSt7__cxx1118basic_stringstreamIcSt11char_traitsIcESaIcEEE, i64 64), align 8
  %22 = getelementptr i8, ptr %20, i64 -24
  %23 = load i64, ptr %22, align 8
  %24 = getelementptr inbounds i8, ptr %3, i64 %23
  store ptr %21, ptr %24, align 8, !tbaa !33
  %25 = load ptr, ptr getelementptr inbounds nuw (i8, ptr @_ZTTNSt7__cxx1118basic_stringstreamIcSt11char_traitsIcESaIcEEE, i64 72), align 8
  store ptr %25, ptr %7, align 8, !tbaa !33
  %26 = getelementptr inbounds nuw i8, ptr %3, i64 24
  store ptr getelementptr inbounds nuw inrange(-16, 112) (i8, ptr @_ZTVNSt7__cxx1115basic_stringbufIcSt11char_traitsIcESaIcEEE, i64 16), ptr %26, align 8, !tbaa !33
  %27 = getelementptr inbounds nuw i8, ptr %3, i64 96
  %28 = load ptr, ptr %27, align 8, !tbaa !23
  %29 = getelementptr inbounds nuw i8, ptr %3, i64 112
  %30 = icmp eq ptr %28, %29
  br i1 %30, label %_ZNKSt7__cxx1112basic_stringIcSt11char_traitsIcESaIcEE11_M_is_localEv.exit.thread.i.i.i.i.i, label %_ZNKSt7__cxx1112basic_stringIcSt11char_traitsIcESaIcEE11_M_is_localEv.exit.i.i.i.i.i

_ZNKSt7__cxx1112basic_stringIcSt11char_traitsIcESaIcEE11_M_is_localEv.exit.thread.i.i.i.i.i: ; preds = %_ZNSt7__cxx1112basic_stringIcSt11char_traitsIcESaIcEED2Ev.exit
  %31 = getelementptr inbounds nuw i8, ptr %3, i64 104
  %32 = load i64, ptr %31, align 8, !tbaa !26
  %33 = icmp ult i64 %32, 16
  call void @llvm.assume(i1 %33)
  br label %_ZNSt7__cxx1118basic_stringstreamIcSt11char_traitsIcESaIcEED1Ev.exit

_ZNKSt7__cxx1112basic_stringIcSt11char_traitsIcESaIcEE11_M_is_localEv.exit.i.i.i.i.i: ; preds = %_ZNSt7__cxx1112basic_stringIcSt11char_traitsIcESaIcEED2Ev.exit
  %34 = load i64, ptr %29, align 8, !tbaa !28
  %35 = add i64 %34, 1
  call void @_ZdlPvm(ptr noundef %28, i64 noundef %35) #58
  br label %_ZNSt7__cxx1118basic_stringstreamIcSt11char_traitsIcESaIcEED1Ev.exit

_ZNSt7__cxx1118basic_stringstreamIcSt11char_traitsIcESaIcEED1Ev.exit: ; preds = %_ZNKSt7__cxx1112basic_stringIcSt11char_traitsIcESaIcEE11_M_is_localEv.exit.thread.i.i.i.i.i, %_ZNKSt7__cxx1112basic_stringIcSt11char_traitsIcESaIcEE11_M_is_localEv.exit.i.i.i.i.i
  store ptr getelementptr inbounds nuw inrange(-16, 112) (i8, ptr @_ZTVSt15basic_streambufIcSt11char_traitsIcEE, i64 16), ptr %26, align 8, !tbaa !33
  %36 = getelementptr inbounds nuw i8, ptr %3, i64 80
  call void @_ZNSt6localeD1Ev(ptr noundef nonnull align 8 dereferenceable(8) %36) #57
  %37 = load ptr, ptr getelementptr inbounds nuw (i8, ptr @_ZTTNSt7__cxx1118basic_stringstreamIcSt11char_traitsIcESaIcEEE, i64 16), align 8
  store ptr %37, ptr %3, align 8, !tbaa !33
  %38 = load ptr, ptr getelementptr inbounds nuw (i8, ptr @_ZTTNSt7__cxx1118basic_stringstreamIcSt11char_traitsIcESaIcEEE, i64 24), align 8
  %39 = getelementptr i8, ptr %37, i64 -24
  %40 = load i64, ptr %39, align 8
  %41 = getelementptr inbounds i8, ptr %3, i64 %40
  store ptr %38, ptr %41, align 8, !tbaa !33
  %42 = getelementptr inbounds nuw i8, ptr %3, i64 8
  store i64 0, ptr %42, align 8, !tbaa !818
  %43 = getelementptr inbounds nuw i8, ptr %3, i64 128
  call void @_ZNSt8ios_baseD2Ev(ptr noundef nonnull align 8 dereferenceable(264) %43) #57
  call void @llvm.lifetime.end.p0(i64 392, ptr nonnull %3) #57
  ret void

44:                                               ; preds = %2
  %45 = landingpad { ptr, i32 }
          cleanup
  br label %48

46:                                               ; preds = %8
  %47 = landingpad { ptr, i32 }
          cleanup
  call void @llvm.lifetime.end.p0(i64 32, ptr nonnull %4) #57
  br label %48

48:                                               ; preds = %46, %44
  %.pn = phi { ptr, i32 } [ %47, %46 ], [ %45, %44 ]
  call void @_ZNSt7__cxx1118basic_stringstreamIcSt11char_traitsIcESaIcEED1Ev(ptr noundef nonnull align 8 dereferenceable(128) %3) #57
  call void @llvm.lifetime.end.p0(i64 392, ptr nonnull %3) #57
  resume { ptr, i32 } %.pn
}